target datalayout = "e-m:e-p270:32:32-p271:32:32-p272:64:64-i64:64-i128:128-f80:128-n8:16:32:64-S128"
target triple = "x86_64-pc-linux-gnu"

; Function Attrs: nounwind uwtable
define dso_local ptr @fdt_find_string_(ptr noundef %0, i32 noundef %1, ptr noundef %2) #0 {
  %4 = alloca ptr, align 8
  %5 = alloca ptr, align 8
  %6 = alloca i32, align 4
  %7 = alloca ptr, align 8
  %8 = alloca i32, align 4
  %9 = alloca ptr, align 8
  %10 = alloca ptr, align 8
  %11 = alloca i32, align 4
  store ptr %0, ptr %5, align 8
  store i32 %1, ptr %6, align 4
  store ptr %2, ptr %7, align 8
  call void @llvm.lifetime.start.p0(i64 4, ptr %8) #5
  %12 = load ptr, ptr %7, align 8
  %13 = call i64 @strlen(ptr noundef %12) #6
  %14 = add i64 %13, 1
  %15 = trunc i64 %14 to i32
  store i32 %15, ptr %8, align 4
  call void @llvm.lifetime.start.p0(i64 8, ptr %9) #5
  %16 = load ptr, ptr %5, align 8
  %17 = load i32, ptr %6, align 4
  %18 = sext i32 %17 to i64
  %19 = getelementptr inbounds i8, ptr %16, i64 %18
  %20 = load i32, ptr %8, align 4
  %21 = sext i32 %20 to i64
  %22 = sub i64 0, %21
  %23 = getelementptr inbounds i8, ptr %19, i64 %22
  store ptr %23, ptr %9, align 8
  call void @llvm.lifetime.start.p0(i64 8, ptr %10) #5
  store ptr null, ptr %10, align 8, !annotation !4
  %24 = load ptr, ptr %5, align 8
  store ptr %24, ptr %10, align 8
  br label %25

25:                                               ; preds = %39, %3
  %26 = load ptr, ptr %10, align 8
  %27 = load ptr, ptr %9, align 8
  %28 = icmp ule ptr %26, %27
  br i1 %28, label %29, label %42

29:                                               ; preds = %25
  %30 = load ptr, ptr %10, align 8
  %31 = load ptr, ptr %7, align 8
  %32 = load i32, ptr %8, align 4
  %33 = sext i32 %32 to i64
  %34 = call i32 @memcmp(ptr noundef %30, ptr noundef %31, i64 noundef %33) #6
  %35 = icmp eq i32 %34, 0
  br i1 %35, label %36, label %38

36:                                               ; preds = %29
  %37 = load ptr, ptr %10, align 8
  store ptr %37, ptr %4, align 8
  store i32 1, ptr %11, align 4
  br label %43

38:                                               ; preds = %29
  br label %39

39:                                               ; preds = %38
  %40 = load ptr, ptr %10, align 8
  %41 = getelementptr inbounds nuw i8, ptr %40, i32 1
  store ptr %41, ptr %10, align 8
  br label %25, !llvm.loop !9

42:                                               ; preds = %25
  store ptr null, ptr %4, align 8
  store i32 1, ptr %11, align 4
  br label %43

43:                                               ; preds = %42, %36
  call void @llvm.lifetime.end.p0(i64 8, ptr %10) #5
  call void @llvm.lifetime.end.p0(i64 8, ptr %9) #5
  call void @llvm.lifetime.end.p0(i64 4, ptr %8) #5
  %44 = load ptr, ptr %4, align 8
  ret ptr %44
}